; ModuleID = '43/356.cpp'
source_filename = "43/356.cpp"
target datalayout = "e-m:e-p270:32:32-p271:32:32-p272:64:64-i64:64-f80:128-n8:16:32:64-S128"
target triple = "x86_64-pc-linux-gnu"

%"class.std::ios_base::Init" = type { i8 }
%"class.std::basic_istream" = type { i32 (...)**, i64, %"class.std::basic_ios" }
%"class.std::basic_ios" = type { %"class.std::ios_base", %"class.std::basic_ostream"*, i8, i8, %"class.std::basic_streambuf"*, %"class.std::ctype"*, %"class.std::num_put"*, %"class.std::num_get"* }
%"class.std::ios_base" = type { i32 (...)**, i64, i64, i32, i32, i32, %"struct.std::ios_base::_Callback_list"*, %"struct.std::ios_base::_Words", [8 x %"struct.std::ios_base::_Words"], i32, %"struct.std::ios_base::_Words"*, %"class.std::locale" }
%"struct.std::ios_base::_Callback_list" = type { %"struct.std::ios_base::_Callback_list"*, void (i32, %"class.std::ios_base"*, i32)*, i32, i32 }
%"struct.std::ios_base::_Words" = type { i8*, i64 }
%"class.std::locale" = type { %"class.std::locale::_Impl"* }
%"class.std::locale::_Impl" = type { i32, %"class.std::locale::facet"**, i64, %"class.std::locale::facet"**, i8** }
%"class.std::locale::facet" = type <{ i32 (...)**, i32, [4 x i8] }>
%"class.std::basic_ostream" = type { i32 (...)**, %"class.std::basic_ios" }
%"class.std::basic_streambuf" = type { i32 (...)**, i8*, i8*, i8*, i8*, i8*, i8*, %"class.std::locale" }
%"class.std::ctype" = type <{ %"class.std::locale::facet.base", [4 x i8], %struct.__locale_struct*, i8, [7 x i8], i32*, i32*, i16*, i8, [256 x i8], [256 x i8], i8, [6 x i8] }>
%"class.std::locale::facet.base" = type <{ i32 (...)**, i32 }>
%struct.__locale_struct = type { [13 x %struct.__locale_data*], i16*, i32*, i32*, [13 x i8*] }
%struct.__locale_data = type opaque
%"class.std::num_put" = type { %"class.std::locale::facet.base", [4 x i8] }
%"class.std::num_get" = type { %"class.std::locale::facet.base", [4 x i8] }

@_ZStL8__ioinit = internal global %"class.std::ios_base::Init" zeroinitializer, align 1
@__dso_handle = external hidden global i8
@_ZSt3cin = external dso_local global %"class.std::basic_istream", align 8
@_ZSt4cout = external dso_local global %"class.std::basic_ostream", align 8
@.str = private unnamed_addr constant [12 x i8] c"input error\00", align 1
@llvm.global_ctors = appending global [1 x { i32, void ()*, i8* }] [{ i32, void ()*, i8* } { i32 65535, void ()* @_GLOBAL__sub_I_356.cpp, i8* null }]

; Function Attrs: noinline uwtable
define internal void @__cxx_global_var_init() #0 section ".text.startup" {
  call void @_ZNSt8ios_base4InitC1Ev(%"class.std::ios_base::Init"* @_ZStL8__ioinit)
  %1 = call i32 @__cxa_atexit(void (i8*)* bitcast (void (%"class.std::ios_base::Init"*)* @_ZNSt8ios_base4InitD1Ev to void (i8*)*), i8* getelementptr inbounds (%"class.std::ios_base::Init", %"class.std::ios_base::Init"* @_ZStL8__ioinit, i32 0, i32 0), i8* @__dso_handle) #3
  ret void
}

declare dso_local void @_ZNSt8ios_base4InitC1Ev(%"class.std::ios_base::Init"*) unnamed_addr #1

; Function Attrs: nounwind
declare dso_local void @_ZNSt8ios_base4InitD1Ev(%"class.std::ios_base::Init"*) unnamed_addr #2

; Function Attrs: nounwind
declare dso_local i32 @__cxa_atexit(void (i8*)*, i8*, i8*) #3

; Function Attrs: noinline norecurse uwtable
define dso_local i32 @main() #4 {
  %1 = alloca i32, align 4
  %2 = alloca i32, align 4
  %3 = alloca i32, align 4
  %4 = alloca i32, align 4
  %5 = alloca i32, align 4
  %6 = alloca i32, align 4
  store i32 0, i32* %1, align 4
  %7 = call dereferenceable(280) %"class.std::basic_istream"* @_ZNSirsERi(%"class.std::basic_istream"* @_ZSt3cin, i32* dereferenceable(4) %2)
  %8 = load i32, i32* %2, align 4
  %9 = srem i32 %8, 2
  %10 = icmp ne i32 %9, 0
  br i1 %10, label %11, label %13

11:                                               ; preds = %0
  %12 = call dereferenceable(272) %"class.std::basic_ostream"* @_ZStlsISt11char_traitsIcEERSt13basic_ostreamIcT_ES5_PKc(%"class.std::basic_ostream"* dereferenceable(272) @_ZSt4cout, i8* getelementptr inbounds ([12 x i8], [12 x i8]* @.str, i64 0, i64 0))
  br label %80

13:                                               ; preds = %0
  %14 = load i32, i32* %2, align 4
  %15 = sdiv i32 %14, 2
  store i32 %15, i32* %3, align 4
  store i32 3, i32* %4, align 4
  %16 = load i32, i32* %2, align 4
  %17 = load i32, i32* %4, align 4
  %18 = sub nsw i32 %16, %17
  store i32 %18, i32* %5, align 4
  br label %19

19:                                               ; preds = %74, %13
  %20 = load i32, i32* %4, align 4
  %21 = load i32, i32* %3, align 4
  %22 = icmp sle i32 %20, %21
  br i1 %22, label %23, label %79

23:                                               ; preds = %19
  store i32 2, i32* %6, align 4
  br label %24

24:                                               ; preds = %36, %23
  %25 = load i32, i32* %6, align 4
  %26 = load i32, i32* %4, align 4
  %27 = icmp slt i32 %25, %26
  br i1 %27, label %28, label %39

28:                                               ; preds = %24
  %29 = load i32, i32* %4, align 4
  %30 = load i32, i32* %6, align 4
  %31 = srem i32 %29, %30
  %32 = icmp ne i32 %31, 0
  br i1 %32, label %33, label %34

33:                                               ; preds = %28
  br label %35

34:                                               ; preds = %28
  br label %39

35:                                               ; preds = %33
  br label %36

36:                                               ; preds = %35
  %37 = load i32, i32* %6, align 4
  %38 = add nsw i32 %37, 1
  store i32 %38, i32* %6, align 4
  br label %24

39:                                               ; preds = %34, %24
  %40 = load i32, i32* %6, align 4
  %41 = load i32, i32* %4, align 4
  %42 = icmp eq i32 %40, %41
  br i1 %42, label %43, label %72

43:                                               ; preds = %39
  store i32 2, i32* %6, align 4
  br label %44

44:                                               ; preds = %56, %43
  %45 = load i32, i32* %6, align 4
  %46 = load i32, i32* %5, align 4
  %47 = icmp slt i32 %45, %46
  br i1 %47, label %48, label %59

48:                                               ; preds = %44
  %49 = load i32, i32* %5, align 4
  %50 = load i32, i32* %6, align 4
  %51 = srem i32 %49, %50
  %52 = icmp ne i32 %51, 0
  br i1 %52, label %53, label %54

53:                                               ; preds = %48
  br label %55

54:                                               ; preds = %48
  br label %59

55:                                               ; preds = %53
  br label %56

56:                                               ; preds = %55
  %57 = load i32, i32* %6, align 4
  %58 = add nsw i32 %57, 1
  store i32 %58, i32* %6, align 4
  br label %44

59:                                               ; preds = %54, %44
  %60 = load i32, i32* %6, align 4
  %61 = load i32, i32* %5, align 4
  %62 = icmp eq i32 %60, %61
  br i1 %62, label %63, label %70

63:                                               ; preds = %59
  %64 = load i32, i32* %4, align 4
  %65 = call dereferenceable(272) %"class.std::basic_ostream"* @_ZNSolsEi(%"class.std::basic_ostream"* @_ZSt4cout, i32 %64)
  %66 = call dereferenceable(272) %"class.std::basic_ostream"* @_ZStlsISt11char_traitsIcEERSt13basic_ostreamIcT_ES5_c(%"class.std::basic_ostream"* dereferenceable(272) %65, i8 signext 32)
  %67 = load i32, i32* %5, align 4
  %68 = call dereferenceable(272) %"class.std::basic_ostream"* @_ZNSolsEi(%"class.std::basic_ostream"* %66, i32 %67)
  %69 = call dereferenceable(272) %"class.std::basic_ostream"* @_ZStlsISt11char_traitsIcEERSt13basic_ostreamIcT_ES5_c(%"class.std::basic_ostream"* dereferenceable(272) %68, i8 signext 10)
  br label %71

70:                                               ; preds = %59
  br label %71

71:                                               ; preds = %70, %63
  br label %73

72:                                               ; preds = %39
  br label %73

73:                                               ; preds = %72, %71
  br label %74

74:                                               ; preds = %73
  %75 = load i32, i32* %4, align 4
  %76 = add nsw i32 %75, 1
  store i32 %76, i32* %4, align 4
  %77 = load i32, i32* %5, align 4
  %78 = add nsw i32 %77, -1
  store i32 %78, i32* %5, align 4
  br label %19

79:                                               ; preds = %19
  br label %80

80:                                               ; preds = %79, %11
  %81 = call i32 @_ZNSi3getEv(%"class.std::basic_istream"* @_ZSt3cin)
  %82 = call i32 @_ZNSi3getEv(%"class.std::basic_istream"* @_ZSt3cin)
  ret i32 0
}

declare dso_local dereferenceable(280) %"class.std::basic_istream"* @_ZNSirsERi(%"class.std::basic_istream"*, i32* dereferenceable(4)) #1

declare dso_local dereferenceable(272) %"class.std::basic_ostream"* @_ZStlsISt11char_traitsIcEERSt13basic_ostreamIcT_ES5_PKc(%"class.std::basic_ostream"* dereferenceable(272), i8*) #1

declare dso_local dereferenceable(272) %"class.std::basic_ostream"* @_ZStlsISt11char_traitsIcEERSt13basic_ostreamIcT_ES5_c(%"class.std::basic_ostream"* dereferenceable(272), i8 signext) #1

declare dso_local dereferenceable(272) %"class.std::basic_ostream"* @_ZNSolsEi(%"class.std::basic_ostream"*, i32) #1

declare dso_local i32 @_ZNSi3getEv(%"class.std::basic_istream"*) #1

; Function Attrs: noinline uwtable
define internal void @_GLOBAL__sub_I_356.cpp() #0 section ".text.startup" {
  call void @__cxx_global_var_init()
  ret void
}


!llvm.module.flags = !{!0}
!llvm.ident = !{!1}

!0 = !{i32 1, !"wchar_size", i32 4}
!1 = !{!"clang version 10.0.0-4ubuntu1 "}
